target datalayout = "e-m:e-p270:32:32-p271:32:32-p272:64:64-i64:64-i128:128-f80:128-n8:16:32:64-S128"
target triple = "x86_64-pc-linux-gnu"

%struct.JNINativeInterface_ = type { ptr, ptr, ptr, ptr, ptr, ptr, ptr, ptr, ptr, ptr, ptr, ptr, ptr, ptr, ptr, ptr, ptr, ptr, ptr, ptr, ptr, ptr, ptr, ptr, ptr, ptr, ptr, ptr, ptr, ptr, ptr, ptr, ptr, ptr, ptr, ptr, ptr, ptr, ptr, ptr, ptr, ptr, ptr, ptr, ptr, ptr, ptr, ptr, ptr, ptr, ptr, ptr, ptr, ptr, ptr, ptr, ptr, ptr, ptr, ptr, ptr, ptr, ptr, ptr, ptr, ptr, ptr, ptr, ptr, ptr, ptr, ptr, ptr, ptr, ptr, ptr, ptr, ptr, ptr, ptr, ptr, ptr, ptr, ptr, ptr, ptr, ptr, ptr, ptr, ptr, ptr, ptr, ptr, ptr, ptr, ptr, ptr, ptr, ptr, ptr, ptr, ptr, ptr, ptr, ptr, ptr, ptr, ptr, ptr, ptr, ptr, ptr, ptr, ptr, ptr, ptr, ptr, ptr, ptr, ptr, ptr, ptr, ptr, ptr, ptr, ptr, ptr, ptr, ptr, ptr, ptr, ptr, ptr, ptr, ptr, ptr, ptr, ptr, ptr, ptr, ptr, ptr, ptr, ptr, ptr, ptr, ptr, ptr, ptr, ptr, ptr, ptr, ptr, ptr, ptr, ptr, ptr, ptr, ptr, ptr, ptr, ptr, ptr, ptr, ptr, ptr, ptr, ptr, ptr, ptr, ptr, ptr, ptr, ptr, ptr, ptr, ptr, ptr, ptr, ptr, ptr, ptr, ptr, ptr, ptr, ptr, ptr, ptr, ptr, ptr, ptr, ptr, ptr, ptr, ptr, ptr, ptr, ptr, ptr, ptr, ptr, ptr, ptr, ptr, ptr, ptr, ptr, ptr, ptr, ptr, ptr, ptr, ptr, ptr, ptr, ptr, ptr, ptr, ptr, ptr, ptr, ptr, ptr, ptr, ptr, ptr, ptr, ptr, ptr, ptr, ptr, ptr, ptr, ptr, ptr }
%struct.sockaddr_in = type { i16, i16, %struct.in_addr, [8 x i8] }
%struct.in_addr = type { i32 }
%struct.ifconf = type { i32, %union.anon.2 }
%union.anon.2 = type { ptr }
%struct.sockaddr = type { i16, [14 x i8] }
%struct.ifreq = type { %union.anon.0, %union.anon.1 }
%union.anon.0 = type { [16 x i8] }
%union.anon.1 = type { %struct.ifmap }
%struct.ifmap = type { i64, i64, i16, i8, i8, i8 }

@.str.26 = private unnamed_addr constant [25 x i8] c"java/net/SocketException\00", align 1
@.str.31 = private unnamed_addr constant [26 x i8] c"ioctl(SIOCGIFCONF) failed\00", align 1
@.str.32 = private unnamed_addr constant [30 x i8] c"Native heap allocation failed\00", align 1

; Function Attrs: nounwind uwtable
define internal signext i16 @translateIPv4AddressToPrefix(ptr noundef %0) #0 {
  %2 = alloca i16, align 2
  %3 = alloca ptr, align 8
  %4 = alloca i16, align 2
  %5 = alloca i32, align 4
  store ptr %0, ptr %3, align 8
  store i16 0, ptr %4, align 2
  %6 = load ptr, ptr %3, align 8
  %7 = icmp eq ptr %6, null
  br i1 %7, label %8, label %9

8:                                                ; preds = %1
  store i16 0, ptr %2, align 2
  br label %25

9:                                                ; preds = %1
  %10 = load ptr, ptr %3, align 8
  %11 = getelementptr inbounds %struct.sockaddr_in, ptr %10, i32 0, i32 2
  %12 = getelementptr inbounds %struct.in_addr, ptr %11, i32 0, i32 0
  %13 = load i32, ptr %12, align 4
  %14 = call i32 @ntohl(i32 noundef %13) #9
  store i32 %14, ptr %5, align 4
  br label %15

15:                                               ; preds = %18, %9
  %16 = load i32, ptr %5, align 4
  %17 = icmp ne i32 %16, 0
  br i1 %17, label %18, label %23

18:                                               ; preds = %15
  %19 = load i32, ptr %5, align 4
  %20 = shl i32 %19, 1
  store i32 %20, ptr %5, align 4
  %21 = load i16, ptr %4, align 2
  %22 = add i16 %21, 1
  store i16 %22, ptr %4, align 2
  br label %15, !llvm.loop !24

23:                                               ; preds = %15
  %24 = load i16, ptr %4, align 2
  store i16 %24, ptr %2, align 2
  br label %25

25:                                               ; preds = %23, %8
  %26 = load i16, ptr %2, align 2
  ret i16 %26
}

; Function Attrs: nounwind uwtable
define internal ptr @enumIPv4Interfaces(ptr noundef %0, i32 noundef %1, ptr noundef %2) #0 {
  %4 = alloca ptr, align 8
  %5 = alloca ptr, align 8
  %6 = alloca i32, align 4
  %7 = alloca ptr, align 8
  %8 = alloca %struct.ifconf, align 8
  %9 = alloca ptr, align 8
  %10 = alloca ptr, align 8
  %11 = alloca i32, align 4
  %12 = alloca %struct.sockaddr, align 2
  %13 = alloca %struct.sockaddr, align 2
  %14 = alloca ptr, align 8
  %15 = alloca i16, align 2
  store ptr %0, ptr %5, align 8
  store i32 %1, ptr %6, align 4
  store ptr %2, ptr %7, align 8
  store ptr null, ptr %10, align 8
  %16 = getelementptr inbounds %struct.ifconf, ptr %8, i32 0, i32 1
  store ptr null, ptr %16, align 8
  %17 = load i32, ptr %6, align 4
  %18 = call i32 (i32, i64, ...) @ioctl(i32 noundef %17, i64 noundef 35090, ptr noundef %8) #10
  %19 = icmp slt i32 %18, 0
  br i1 %19, label %20, label %23

20:                                               ; preds = %3
  %21 = load ptr, ptr %5, align 8
  call void @JNU_ThrowByNameWithMessageAndLastError(ptr noundef %21, ptr noundef @.str.26, ptr noundef @.str.31)
  %22 = load ptr, ptr %7, align 8
  store ptr %22, ptr %4, align 8
  br label %129

23:                                               ; preds = %3
  br label %24

24:                                               ; preds = %23
  %25 = getelementptr inbounds %struct.ifconf, ptr %8, i32 0, i32 0
  %26 = load i32, ptr %25, align 8
  %27 = sext i32 %26 to i64
  %28 = call noalias ptr @malloc(i64 noundef %27) #11
  store ptr %28, ptr %10, align 8
  %29 = load ptr, ptr %10, align 8
  %30 = icmp eq ptr %29, null
  br i1 %30, label %31, label %34

31:                                               ; preds = %24
  %32 = load ptr, ptr %5, align 8
  call void @JNU_ThrowOutOfMemoryError(ptr noundef %32, ptr noundef @.str.32)
  %33 = load ptr, ptr %7, align 8
  store ptr %33, ptr %4, align 8
  br label %129

34:                                               ; preds = %24
  br label %35

35:                                               ; preds = %34
  %36 = load ptr, ptr %10, align 8
  %37 = getelementptr inbounds %struct.ifconf, ptr %8, i32 0, i32 1
  store ptr %36, ptr %37, align 8
  %38 = load i32, ptr %6, align 4
  %39 = call i32 (i32, i64, ...) @ioctl(i32 noundef %38, i64 noundef 35090, ptr noundef %8) #10
  %40 = icmp slt i32 %39, 0
  br i1 %40, label %41, label %45

41:                                               ; preds = %35
  %42 = load ptr, ptr %5, align 8
  call void @JNU_ThrowByNameWithMessageAndLastError(ptr noundef %42, ptr noundef @.str.26, ptr noundef @.str.31)
  %43 = load ptr, ptr %10, align 8
  call void @free(ptr noundef %43) #10
  %44 = load ptr, ptr %7, align 8
  store ptr %44, ptr %4, align 8
  br label %129

45:                                               ; preds = %35
  %46 = getelementptr inbounds %struct.ifconf, ptr %8, i32 0, i32 1
  %47 = load ptr, ptr %46, align 8
  store ptr %47, ptr %9, align 8
  store i32 0, ptr %11, align 4
  br label %48

48:                                               ; preds = %121, %45
  %49 = load i32, ptr %11, align 4
  %50 = zext i32 %49 to i64
  %51 = getelementptr inbounds %struct.ifconf, ptr %8, i32 0, i32 0
  %52 = load i32, ptr %51, align 8
  %53 = sext i32 %52 to i64
  %54 = udiv i64 %53, 40
  %55 = icmp ult i64 %50, %54
  br i1 %55, label %56, label %126

56:                                               ; preds = %48
  store ptr null, ptr %14, align 8
  store i16 0, ptr %15, align 2
  %57 = load ptr, ptr %9, align 8
  %58 = getelementptr inbounds %struct.ifreq, ptr %57, i32 0, i32 1
  %59 = getelementptr inbounds %struct.sockaddr, ptr %58, i32 0, i32 0
  %60 = load i16, ptr %59, align 8
  %61 = zext i16 %60 to i32
  %62 = icmp ne i32 %61, 2
  br i1 %62, label %63, label %64

63:                                               ; preds = %56
  br label %121

64:                                               ; preds = %56
  %65 = load ptr, ptr %9, align 8
  %66 = getelementptr inbounds %struct.ifreq, ptr %65, i32 0, i32 1
  call void @llvm.memcpy.p0.p0.i64(ptr align 2 %12, ptr align 8 %66, i64 16, i1 false)
  %67 = load i32, ptr %6, align 4
  %68 = load ptr, ptr %9, align 8
  %69 = call i32 (i32, i64, ...) @ioctl(i32 noundef %67, i64 noundef 35091, ptr noundef %68) #10
  %70 = icmp eq i32 %69, 0
  br i1 %70, label %71, label %89

71:                                               ; preds = %64
  %72 = load ptr, ptr %9, align 8
  %73 = getelementptr inbounds %struct.ifreq, ptr %72, i32 0, i32 1
  %74 = load i16, ptr %73, align 8
  %75 = sext i16 %74 to i32
  %76 = and i32 %75, 2
  %77 = icmp ne i32 %76, 0
  br i1 %77, label %78, label %89

78:                                               ; preds = %71
  %79 = load ptr, ptr %9, align 8
  %80 = getelementptr inbounds %struct.ifreq, ptr %79, i32 0, i32 1
  call void @llvm.memcpy.p0.p0.i64(ptr align 8 %80, ptr align 2 %12, i64 16, i1 false)
  %81 = load i32, ptr %6, align 4
  %82 = load ptr, ptr %9, align 8
  %83 = call i32 (i32, i64, ...) @ioctl(i32 noundef %81, i64 noundef 35097, ptr noundef %82) #10
  %84 = icmp eq i32 %83, 0
  br i1 %84, label %85, label %88

85:                                               ; preds = %78
  %86 = load ptr, ptr %9, align 8
  %87 = getelementptr inbounds %struct.ifreq, ptr %86, i32 0, i32 1
  call void @llvm.memcpy.p0.p0.i64(ptr align 2 %13, ptr align 8 %87, i64 16, i1 false)
  store ptr %13, ptr %14, align 8
  br label %88

88:                                               ; preds = %85, %78
  br label %89

89:                                               ; preds = %88, %71, %64
  %90 = load ptr, ptr %9, align 8
  %91 = getelementptr inbounds %struct.ifreq, ptr %90, i32 0, i32 1
  call void @llvm.memcpy.p0.p0.i64(ptr align 8 %91, ptr align 2 %12, i64 16, i1 false)
  %92 = load i32, ptr %6, align 4
  %93 = load ptr, ptr %9, align 8
  %94 = call i32 (i32, i64, ...) @ioctl(i32 noundef %92, i64 noundef 35099, ptr noundef %93) #10
  %95 = icmp eq i32 %94, 0
  br i1 %95, label %96, label %100

96:                                               ; preds = %89
  %97 = load ptr, ptr %9, align 8
  %98 = getelementptr inbounds %struct.ifreq, ptr %97, i32 0, i32 1
  %99 = call signext i16 @translateIPv4AddressToPrefix(ptr noundef %98)
  store i16 %99, ptr %15, align 2
  br label %100

100:                                              ; preds = %96, %89
  %101 = load ptr, ptr %5, align 8
  %102 = load i32, ptr %6, align 4
  %103 = load ptr, ptr %9, align 8
  %104 = getelementptr inbounds %struct.ifreq, ptr %103, i32 0, i32 0
  %105 = getelementptr inbounds [16 x i8], ptr %104, i64 0, i64 0
  %106 = load ptr, ptr %7, align 8
  %107 = load ptr, ptr %14, align 8
  %108 = load i16, ptr %15, align 2
  %109 = call ptr @addif(ptr noundef %101, i32 noundef %102, ptr noundef %105, ptr noundef %106, ptr noundef %12, ptr noundef %107, i32 noundef 2, i16 noundef signext %108)
  store ptr %109, ptr %7, align 8
  %110 = load ptr, ptr %5, align 8
  %111 = load ptr, ptr %110, align 8
  %112 = getelementptr inbounds %struct.JNINativeInterface_, ptr %111, i32 0, i32 15
  %113 = load ptr, ptr %112, align 8
  %114 = load ptr, ptr %5, align 8
  %115 = call ptr %113(ptr noundef %114)
  %116 = icmp ne ptr %115, null
  br i1 %116, label %117, label %120

117:                                              ; preds = %100
  %118 = load ptr, ptr %10, align 8
  call void @free(ptr noundef %118) #10
  %119 = load ptr, ptr %7, align 8
  call void @freeif(ptr noundef %119)
  store ptr null, ptr %4, align 8
  br label %129

120:                                              ; preds = %100
  br label %121

121:                                              ; preds = %120, %63
  %122 = load i32, ptr %11, align 4
  %123 = add i32 %122, 1
  store i32 %123, ptr %11, align 4
  %124 = load ptr, ptr %9, align 8
  %125 = getelementptr inbounds %struct.ifreq, ptr %124, i32 1
  store ptr %125, ptr %9, align 8
  br label %48, !llvm.loop !16

126:                                              ; preds = %48
  %127 = load ptr, ptr %10, align 8
  call void @free(ptr noundef %127) #10
  %128 = load ptr, ptr %7, align 8
  store ptr %128, ptr %4, align 8
  br label %129

129:                                              ; preds = %126, %117, %41, %31, %20
  %130 = load ptr, ptr %4, align 8
  ret ptr %130
}