; Function Attrs: nounwind uwtable
define internal fastcc ptr @enumIPv4Interfaces(ptr noundef %0, i32 noundef %1) unnamed_addr #0 {
  %3 = alloca %struct.ifconf, align 8
  %4 = alloca %struct.sockaddr, align 2
  %5 = alloca %struct.sockaddr, align 2
  %6 = getelementptr inbounds i8, ptr %3, i64 8
  store ptr null, ptr %6, align 8
  %7 = call i32 (i32, i64, ...) @ioctl(i32 noundef %1, i64 noundef 35090, ptr noundef nonnull %3) #14
  %8 = icmp slt i32 %7, 0
  br i1 %8, label %9, label %10

9:                                                ; preds = %2
  call void @JNU_ThrowByNameWithMessageAndLastError(ptr noundef %0, ptr noundef nonnull @.str.26, ptr noundef nonnull @.str.31) #14
  br label %60

10:                                               ; preds = %2
  %11 = load i32, ptr %3, align 8
  %12 = sext i32 %11 to i64
  %13 = call noalias ptr @malloc(i64 noundef %12) #17
  %14 = icmp eq ptr %13, null
  br i1 %14, label %15, label %16

15:                                               ; preds = %10
  call void @JNU_ThrowOutOfMemoryError(ptr noundef %0, ptr noundef nonnull @.str.32) #14
  br label %60

16:                                               ; preds = %10
  store ptr %13, ptr %6, align 8
  %17 = call i32 (i32, i64, ...) @ioctl(i32 noundef %1, i64 noundef 35090, ptr noundef nonnull %3) #14
  %18 = icmp slt i32 %17, 0
  br i1 %18, label %19, label %20

19:                                               ; preds = %16
  call void @JNU_ThrowByNameWithMessageAndLastError(ptr noundef %0, ptr noundef nonnull @.str.26, ptr noundef nonnull @.str.31) #14
  call void @free(ptr noundef nonnull %13) #14
  br label %60

20:                                               ; preds = %16
  %21 = load i32, ptr %3, align 8
  %.not6 = icmp ult i32 %21, 40
  br i1 %.not6, label %._crit_edge, label %.lr.ph.preheader

.lr.ph.preheader:                                 ; preds = %20
  %22 = load ptr, ptr %6, align 8
  br label %.lr.ph

.lr.ph:                                           ; preds = %.lr.ph.preheader, %52
  %23 = phi i32 [ %53, %52 ], [ %21, %.lr.ph.preheader ]
  %.0405 = phi i32 [ %54, %52 ], [ 0, %.lr.ph.preheader ]
  %.0413 = phi ptr [ %55, %52 ], [ %22, %.lr.ph.preheader ]
  %.0422 = phi ptr [ %.1, %52 ], [ null, %.lr.ph.preheader ]
  %24 = getelementptr inbounds i8, ptr %.0413, i64 16
  %25 = load i16, ptr %24, align 8
  %.not = icmp eq i16 %25, 2
  br i1 %.not, label %26, label %52

26:                                               ; preds = %.lr.ph
  call void @llvm.memcpy.p0.p0.i64(ptr noundef nonnull align 2 dereferenceable(16) %4, ptr noundef nonnull align 8 dereferenceable(16) %24, i64 16, i1 false)
  %27 = call i32 (i32, i64, ...) @ioctl(i32 noundef %1, i64 noundef 35091, ptr noundef nonnull %.0413) #14
  %28 = icmp eq i32 %27, 0
  br i1 %28, label %29, label %36

29:                                               ; preds = %26
  %30 = load i16, ptr %24, align 8
  %31 = and i16 %30, 2
  %.not45 = icmp eq i16 %31, 0
  br i1 %.not45, label %36, label %32

32:                                               ; preds = %29
  call void @llvm.memcpy.p0.p0.i64(ptr noundef nonnull align 8 dereferenceable(16) %24, ptr noundef nonnull align 2 dereferenceable(16) %4, i64 16, i1 false)
  %33 = call i32 (i32, i64, ...) @ioctl(i32 noundef %1, i64 noundef 35097, ptr noundef nonnull %.0413) #14
  %34 = icmp eq i32 %33, 0
  br i1 %34, label %35, label %36

35:                                               ; preds = %32
  call void @llvm.memcpy.p0.p0.i64(ptr noundef nonnull align 2 dereferenceable(16) %5, ptr noundef nonnull align 8 dereferenceable(16) %24, i64 16, i1 false)
  br label %36

36:                                               ; preds = %32, %35, %29, %26
  %.039 = phi ptr [ %5, %35 ], [ null, %32 ], [ null, %29 ], [ null, %26 ]
  call void @llvm.memcpy.p0.p0.i64(ptr noundef nonnull align 8 dereferenceable(16) %24, ptr noundef nonnull align 2 dereferenceable(16) %4, i64 16, i1 false)
  %37 = call i32 (i32, i64, ...) @ioctl(i32 noundef %1, i64 noundef 35099, ptr noundef nonnull %.0413) #14
  %38 = icmp eq i32 %37, 0
  br i1 %38, label %39, label %translateIPv4AddressToPrefix.exit

39:                                               ; preds = %36
  %40 = getelementptr inbounds i8, ptr %.0413, i64 20
  %41 = load i32, ptr %40, align 4
  %42 = call i32 @ntohl(i32 noundef %41) #16
  %.not9.i = icmp eq i32 %42, 0
  br i1 %.not9.i, label %translateIPv4AddressToPrefix.exit, label %.lr.ph.preheader.i

.lr.ph.preheader.i:                               ; preds = %39
  %43 = call range(i32 0, 33) i32 @llvm.cttz.i32(i32 %42, i1 true)
  %44 = trunc nuw nsw i32 %43 to i16
  %45 = sub nuw nsw i16 32, %44
  br label %translateIPv4AddressToPrefix.exit

translateIPv4AddressToPrefix.exit:                ; preds = %.lr.ph.preheader.i, %39, %36
  %.0 = phi i16 [ 0, %36 ], [ 0, %39 ], [ %45, %.lr.ph.preheader.i ]
  %46 = call fastcc ptr @addif(ptr noundef %0, i32 noundef %1, ptr noundef nonnull %.0413, ptr noundef %.0422, ptr noundef nonnull %4, ptr noundef %.039, i32 noundef 2, i16 noundef signext %.0)
  %47 = load ptr, ptr %0, align 8
  %48 = getelementptr inbounds i8, ptr %47, i64 120
  %49 = load ptr, ptr %48, align 8
  %50 = call ptr %49(ptr noundef nonnull %0) #14
  %.not46 = icmp eq ptr %50, null
  br i1 %.not46, label %translateIPv4AddressToPrefix.exit._crit_edge, label %51

translateIPv4AddressToPrefix.exit._crit_edge:     ; preds = %translateIPv4AddressToPrefix.exit
  %.pre = load i32, ptr %3, align 8
  br label %52

51:                                               ; preds = %translateIPv4AddressToPrefix.exit
  call void @free(ptr noundef %13) #14
  call fastcc void @freeif(ptr noundef %46)
  br label %60

52:                                               ; preds = %translateIPv4AddressToPrefix.exit._crit_edge, %.lr.ph
  %53 = phi i32 [ %23, %.lr.ph ], [ %.pre, %translateIPv4AddressToPrefix.exit._crit_edge ]
  %.1 = phi ptr [ %.0422, %.lr.ph ], [ %46, %translateIPv4AddressToPrefix.exit._crit_edge ]
  %54 = add i32 %.0405, 1
  %55 = getelementptr inbounds i8, ptr %.0413, i64 40
  %56 = zext i32 %54 to i64
  %57 = sext i32 %53 to i64
  %58 = udiv i64 %57, 40
  %59 = icmp ugt i64 %58, %56
  br i1 %59, label %.lr.ph, label %._crit_edge, !llvm.loop !18

._crit_edge:                                      ; preds = %52, %20
  %.042.lcssa = phi ptr [ null, %20 ], [ %.1, %52 ]
  call void @free(ptr noundef %13) #14
  br label %60

60:                                               ; preds = %._crit_edge, %51, %19, %15, %9
  %.043 = phi ptr [ null, %9 ], [ null, %15 ], [ null, %19 ], [ null, %51 ], [ %.042.lcssa, %._crit_edge ]
  ret ptr %.043
}